#include <math.h>
#include <stdio.h>
#include <stdlib.h>
#include <string.h>

void main()
{
	int a[1000];
	int n,k,i,j;
	int flag=0;
	scanf("%d %d",&n,&k);
	for(i=0;i<n;i++)
		scanf("%d",&a[i]);
    for(i=0;i<n&&flag==0;i++)
	{
		for(j=0;j<n;j++)
			if(a[i]!=a[j]&&a[i]+a[j]==k)
			{
				flag=1;
				break;
			}
	}
	if(flag)
		printf("yes");
	else
		printf("no");
}