; ModuleID = 'source-C-CXX/2/510.c'
source_filename = "source-C-CXX/2/510.c"
target datalayout = "e-m:e-p270:32:32-p271:32:32-p272:64:64-i64:64-f80:128-n8:16:32:64-S128"
target triple = "x86_64-pc-linux-gnu"

@.str = private unnamed_addr constant [6 x i8] c"%d %d\00", align 1
@.str.1 = private unnamed_addr constant [3 x i8] c"%d\00", align 1
@.str.2 = private unnamed_addr constant [4 x i8] c"yes\00", align 1
@.str.3 = private unnamed_addr constant [3 x i8] c"no\00", align 1

; Function Attrs: nofree nounwind sspstrong uwtable
define dso_local void @main() local_unnamed_addr #0 {
  %1 = alloca [1000 x i32], align 16
  %2 = alloca i32, align 4
  %3 = alloca i32, align 4
  %4 = bitcast [1000 x i32]* %1 to i8*
  call void @llvm.lifetime.start.p0i8(i64 4000, i8* nonnull %4) #3
  %5 = bitcast i32* %2 to i8*
  call void @llvm.lifetime.start.p0i8(i64 4, i8* nonnull %5) #3
  %6 = bitcast i32* %3 to i8*
  call void @llvm.lifetime.start.p0i8(i64 4, i8* nonnull %6) #3
  %7 = call i32 (i8*, ...) @__isoc99_scanf(i8* getelementptr inbounds ([6 x i8], [6 x i8]* @.str, i64 0, i64 0), i32* nonnull %2, i32* nonnull %3)
  %8 = load i32, i32* %2, align 4, !tbaa !5
  %9 = icmp sgt i32 %8, 0
  br i1 %9, label %35, label %43

10:                                               ; preds = %35
  %11 = load i32, i32* %3, align 4
  %12 = icmp sgt i32 %40, 0
  br i1 %12, label %13, label %43

13:                                               ; preds = %10
  %14 = zext i32 %40 to i64
  %15 = zext i32 %40 to i64
  br label %16

16:                                               ; preds = %13, %28
  %17 = phi i64 [ 0, %13 ], [ %29, %28 ]
  %18 = getelementptr inbounds [1000 x i32], [1000 x i32]* %1, i64 0, i64 %17
  %19 = load i32, i32* %18, align 4, !tbaa !5
  br label %20

20:                                               ; preds = %16, %32
  %21 = phi i64 [ 0, %16 ], [ %33, %32 ]
  %22 = getelementptr inbounds [1000 x i32], [1000 x i32]* %1, i64 0, i64 %21
  %23 = load i32, i32* %22, align 4, !tbaa !5
  %24 = icmp ne i32 %19, %23
  %25 = add nsw i32 %23, %19
  %26 = icmp eq i32 %25, %11
  %27 = select i1 %24, i1 %26, i1 false
  br i1 %27, label %43, label %32

28:                                               ; preds = %32
  %29 = add nuw nsw i64 %17, 1
  %30 = icmp uge i64 %29, %14
  %31 = or i1 %27, %30
  br i1 %31, label %43, label %16, !llvm.loop !9

32:                                               ; preds = %20
  %33 = add nuw nsw i64 %21, 1
  %34 = icmp eq i64 %33, %15
  br i1 %34, label %28, label %20, !llvm.loop !11

35:                                               ; preds = %0, %35
  %36 = phi i64 [ %39, %35 ], [ 0, %0 ]
  %37 = getelementptr inbounds [1000 x i32], [1000 x i32]* %1, i64 0, i64 %36
  %38 = call i32 (i8*, ...) @__isoc99_scanf(i8* getelementptr inbounds ([3 x i8], [3 x i8]* @.str.1, i64 0, i64 0), i32* nonnull %37)
  %39 = add nuw nsw i64 %36, 1
  %40 = load i32, i32* %2, align 4, !tbaa !5
  %41 = sext i32 %40 to i64
  %42 = icmp slt i64 %39, %41
  br i1 %42, label %35, label %10, !llvm.loop !12

43:                                               ; preds = %28, %20, %10, %0
  %44 = phi i8* [ getelementptr inbounds ([3 x i8], [3 x i8]* @.str.3, i64 0, i64 0), %0 ], [ getelementptr inbounds ([3 x i8], [3 x i8]* @.str.3, i64 0, i64 0), %10 ], [ getelementptr inbounds ([4 x i8], [4 x i8]* @.str.2, i64 0, i64 0), %20 ], [ getelementptr inbounds ([3 x i8], [3 x i8]* @.str.3, i64 0, i64 0), %28 ]
  %45 = call i32 (i8*, ...) @printf(i8* nonnull dereferenceable(1) %44)
  call void @llvm.lifetime.end.p0i8(i64 4, i8* nonnull %6) #3
  call void @llvm.lifetime.end.p0i8(i64 4, i8* nonnull %5) #3
  call void @llvm.lifetime.end.p0i8(i64 4000, i8* nonnull %4) #3
  ret void
}

; Function Attrs: argmemonly mustprogress nofree nosync nounwind willreturn
declare void @llvm.lifetime.start.p0i8(i64 immarg, i8* nocapture) #1

; Function Attrs: nofree nounwind
declare noundef i32 @__isoc99_scanf(i8* nocapture noundef readonly, ...) local_unnamed_addr #2

; Function Attrs: nofree nounwind
declare noundef i32 @printf(i8* nocapture noundef readonly, ...) local_unnamed_addr #2

; Function Attrs: argmemonly mustprogress nofree nosync nounwind willreturn
declare void @llvm.lifetime.end.p0i8(i64 immarg, i8* nocapture) #1


!llvm.module.flags = !{!0, !1, !2, !3}
!llvm.ident = !{!4}

!0 = !{i32 1, !"wchar_size", i32 4}
!1 = !{i32 7, !"PIC Level", i32 2}
!2 = !{i32 7, !"PIE Level", i32 2}
!3 = !{i32 7, !"uwtable", i32 1}
!4 = !{!"clang version 13.0.0"}
!5 = !{!6, !6, i64 0}
!6 = !{!"int", !7, i64 0}
!7 = !{!"omnipotent char", !8, i64 0}
!8 = !{!"Simple C/C++ TBAA"}
!9 = distinct !{!9, !10}
!10 = !{!"llvm.loop.mustprogress"}
!11 = distinct !{!11, !10}
!12 = distinct !{!12, !10}
